target datalayout = "e-m:e-p270:32:32-p271:32:32-p272:64:64-i64:64-i128:128-f80:128-n8:16:32:64-S128"
target triple = "x86_64-unknown-linux-gnu"

%"class.arrow::Int32Type" = type { %"class.arrow::detail::IntegerTypeImpl" }
%"class.arrow::detail::IntegerTypeImpl" = type { %"class.arrow::detail::CTypeImpl" }
%"class.arrow::detail::CTypeImpl" = type { %"class.arrow::IntegerType" }
%"class.arrow::IntegerType" = type { %"class.arrow::NumberType" }
%"class.arrow::NumberType" = type { %"class.arrow::PrimitiveCType" }
%"class.arrow::PrimitiveCType" = type { %"class.arrow::FixedWidthType" }
%"class.arrow::FixedWidthType" = type { %"class.arrow::DataType" }
%"class.arrow::DataType" = type { %"class.arrow::detail::Fingerprintable", %"class.std::enable_shared_from_this.118", i32, %"class.std::vector.123" }
%"class.arrow::detail::Fingerprintable" = type { ptr, %"struct.std::atomic", %"struct.std::atomic" }
%"struct.std::atomic" = type { %"struct.std::__atomic_base" }
%"struct.std::__atomic_base" = type { ptr }
%"class.std::enable_shared_from_this.118" = type { %"class.std::weak_ptr.119" }
%"class.std::weak_ptr.119" = type { %"class.std::__weak_ptr.120" }
%"class.std::__weak_ptr.120" = type { ptr, %"class.std::__weak_count" }
%"class.std::__weak_count" = type { ptr }
%"class.std::vector.123" = type { %"struct.std::_Vector_base.124" }
%"struct.std::_Vector_base.124" = type { %"struct.std::_Vector_base<std::shared_ptr<arrow::Field>, std::allocator<std::shared_ptr<arrow::Field>>>::_Vector_impl" }
%"struct.std::_Vector_base<std::shared_ptr<arrow::Field>, std::allocator<std::shared_ptr<arrow::Field>>>::_Vector_impl" = type { %"struct.std::_Vector_base<std::shared_ptr<arrow::Field>, std::allocator<std::shared_ptr<arrow::Field>>>::_Vector_impl_data" }
%"struct.std::_Vector_base<std::shared_ptr<arrow::Field>, std::allocator<std::shared_ptr<arrow::Field>>>::_Vector_impl_data" = type { ptr, ptr, ptr }
%"struct.arrow::internal::StringConverter" = type { i8 }

@__dso_handle = external hidden global i8
@_ZZN5arrow8internal10ParseValueINS_9Int32TypeEEENSt9enable_ifIXsr22is_parameter_free_typeIT_EE5valueEbE4typeEPKcmPNS0_15StringConverterIS4_vE10value_typeEE4type = linkonce_odr global %"class.arrow::Int32Type" zeroinitializer, comdat, align 8
@_ZGVZN5arrow8internal10ParseValueINS_9Int32TypeEEENSt9enable_ifIXsr22is_parameter_free_typeIT_EE5valueEbE4typeEPKcmPNS0_15StringConverterIS4_vE10value_typeEE4type = linkonce_odr global i64 0, comdat, align 8
@_ZTVN5arrow9Int32TypeE = external unnamed_addr constant { [13 x ptr] }, align 8
@_ZTVN5arrow11IntegerTypeE = external unnamed_addr constant { [13 x ptr] }, align 8
@_ZTVN5arrow10NumberTypeE = external unnamed_addr constant { [12 x ptr] }, align 8
@_ZTVN5arrow14PrimitiveCTypeE = external unnamed_addr constant { [12 x ptr] }, align 8
@_ZTVN5arrow14FixedWidthTypeE = external unnamed_addr constant { [12 x ptr] }, align 8
@_ZTVN5arrow8DataTypeE = external unnamed_addr constant { [12 x ptr] }, align 8
@_ZTVN5arrow6detail15FingerprintableE = external unnamed_addr constant { [6 x ptr] }, align 8

; Function Attrs: mustprogress nounwind uwtable
define linkonce_odr void @_ZNSt15__new_allocatorISt10shared_ptrIN5arrow5FieldEEEC2Ev(ptr noundef nonnull align 1 dereferenceable(1) %this) unnamed_addr #1 comdat align 2 {
entry:
  %this.addr = alloca ptr, align 8
  store ptr %this, ptr %this.addr, align 8
  ret void
}

; Function Attrs: mustprogress nounwind uwtable
define linkonce_odr void @_ZNSt12_Vector_baseISt10shared_ptrIN5arrow5FieldEESaIS3_EE17_Vector_impl_dataC2Ev(ptr noundef nonnull align 8 dereferenceable(24) %this) unnamed_addr #1 comdat align 2 {
entry:
  %this.addr = alloca ptr, align 8
  store ptr %this, ptr %this.addr, align 8
  %this1 = load ptr, ptr %this.addr, align 8
  %_M_start = getelementptr inbounds %"struct.std::_Vector_base<std::shared_ptr<arrow::Field>, std::allocator<std::shared_ptr<arrow::Field>>>::_Vector_impl_data", ptr %this1, i32 0, i32 0
  store ptr null, ptr %_M_start, align 8
  %_M_finish = getelementptr inbounds %"struct.std::_Vector_base<std::shared_ptr<arrow::Field>, std::allocator<std::shared_ptr<arrow::Field>>>::_Vector_impl_data", ptr %this1, i32 0, i32 1
  store ptr null, ptr %_M_finish, align 8
  %_M_end_of_storage = getelementptr inbounds %"struct.std::_Vector_base<std::shared_ptr<arrow::Field>, std::allocator<std::shared_ptr<arrow::Field>>>::_Vector_impl_data", ptr %this1, i32 0, i32 2
  store ptr null, ptr %_M_end_of_storage, align 8
  ret void
}

; Function Attrs: mustprogress nounwind uwtable
define linkonce_odr void @_ZNSaISt10shared_ptrIN5arrow5FieldEEEC2Ev(ptr noundef nonnull align 1 dereferenceable(1) %this) unnamed_addr #1 comdat align 2 {
entry:
  %this.addr = alloca ptr, align 8
  store ptr %this, ptr %this.addr, align 8
  %this1 = load ptr, ptr %this.addr, align 8
  call void @_ZNSt15__new_allocatorISt10shared_ptrIN5arrow5FieldEEEC2Ev(ptr noundef nonnull align 1 dereferenceable(1) %this1) #8
  ret void
}

; Function Attrs: mustprogress nounwind uwtable
define linkonce_odr void @_ZNSt12__weak_countILN9__gnu_cxx12_Lock_policyE2EEC2Ev(ptr noundef nonnull align 8 dereferenceable(8) %this) unnamed_addr #1 comdat align 2 {
entry:
  %this.addr = alloca ptr, align 8
  store ptr %this, ptr %this.addr, align 8
  %this1 = load ptr, ptr %this.addr, align 8
  %_M_pi = getelementptr inbounds %"class.std::__weak_count", ptr %this1, i32 0, i32 0
  store ptr null, ptr %_M_pi, align 8
  ret void
}

; Function Attrs: mustprogress nounwind uwtable
define linkonce_odr void @_ZNSt12_Vector_baseISt10shared_ptrIN5arrow5FieldEESaIS3_EE12_Vector_implC2Ev(ptr noundef nonnull align 8 dereferenceable(24) %this) unnamed_addr #1 comdat align 2 {
entry:
  %this.addr = alloca ptr, align 8
  store ptr %this, ptr %this.addr, align 8
  %this1 = load ptr, ptr %this.addr, align 8
  call void @_ZNSaISt10shared_ptrIN5arrow5FieldEEEC2Ev(ptr noundef nonnull align 1 dereferenceable(1) %this1) #8
  call void @_ZNSt12_Vector_baseISt10shared_ptrIN5arrow5FieldEESaIS3_EE17_Vector_impl_dataC2Ev(ptr noundef nonnull align 8 dereferenceable(24) %this1) #8
  ret void
}

; Function Attrs: mustprogress nounwind uwtable
define linkonce_odr void @_ZNSt13__atomic_baseIPNSt7__cxx1112basic_stringIcSt11char_traitsIcESaIcEEEEC2ES6_(ptr noundef nonnull align 8 dereferenceable(8) %this, ptr noundef %__p) unnamed_addr #1 comdat align 2 {
entry:
  %this.addr = alloca ptr, align 8
  %__p.addr = alloca ptr, align 8
  store ptr %this, ptr %this.addr, align 8
  store ptr %__p, ptr %__p.addr, align 8
  %this1 = load ptr, ptr %this.addr, align 8
  %_M_p = getelementptr inbounds %"struct.std::__atomic_base", ptr %this1, i32 0, i32 0
  %0 = load ptr, ptr %__p.addr, align 8
  store ptr %0, ptr %_M_p, align 8
  ret void
}

; Function Attrs: mustprogress nounwind uwtable
define linkonce_odr void @_ZNSt10__weak_ptrIN5arrow8DataTypeELN9__gnu_cxx12_Lock_policyE2EEC2Ev(ptr noundef nonnull align 8 dereferenceable(16) %this) unnamed_addr #1 comdat align 2 {
entry:
  %this.addr = alloca ptr, align 8
  store ptr %this, ptr %this.addr, align 8
  %this1 = load ptr, ptr %this.addr, align 8
  %_M_ptr = getelementptr inbounds %"class.std::__weak_ptr.120", ptr %this1, i32 0, i32 0
  store ptr null, ptr %_M_ptr, align 8
  %_M_refcount = getelementptr inbounds %"class.std::__weak_ptr.120", ptr %this1, i32 0, i32 1
  call void @_ZNSt12__weak_countILN9__gnu_cxx12_Lock_policyE2EEC2Ev(ptr noundef nonnull align 8 dereferenceable(8) %_M_refcount) #8
  ret void
}

; Function Attrs: mustprogress nounwind uwtable
define linkonce_odr void @_ZNSt12_Vector_baseISt10shared_ptrIN5arrow5FieldEESaIS3_EEC2Ev(ptr noundef nonnull align 8 dereferenceable(24) %this) unnamed_addr #1 comdat align 2 {
entry:
  %this.addr = alloca ptr, align 8
  store ptr %this, ptr %this.addr, align 8
  %this1 = load ptr, ptr %this.addr, align 8
  %_M_impl = getelementptr inbounds %"struct.std::_Vector_base.124", ptr %this1, i32 0, i32 0
  call void @_ZNSt12_Vector_baseISt10shared_ptrIN5arrow5FieldEESaIS3_EE12_Vector_implC2Ev(ptr noundef nonnull align 8 dereferenceable(24) %_M_impl) #8
  ret void
}

; Function Attrs: mustprogress nounwind uwtable
define linkonce_odr void @_ZNSt6atomicIPNSt7__cxx1112basic_stringIcSt11char_traitsIcESaIcEEEEC2ES6_(ptr noundef nonnull align 8 dereferenceable(8) %this, ptr noundef %__p) unnamed_addr #1 comdat align 2 {
entry:
  %this.addr = alloca ptr, align 8
  %__p.addr = alloca ptr, align 8
  store ptr %this, ptr %this.addr, align 8
  store ptr %__p, ptr %__p.addr, align 8
  %this1 = load ptr, ptr %this.addr, align 8
  %_M_b = getelementptr inbounds %"struct.std::atomic", ptr %this1, i32 0, i32 0
  %0 = load ptr, ptr %__p.addr, align 8
  call void @_ZNSt13__atomic_baseIPNSt7__cxx1112basic_stringIcSt11char_traitsIcESaIcEEEEC2ES6_(ptr noundef nonnull align 8 dereferenceable(8) %_M_b, ptr noundef %0) #8
  ret void
}

; Function Attrs: mustprogress nounwind uwtable
define linkonce_odr void @_ZNSt8weak_ptrIN5arrow8DataTypeEEC2Ev(ptr noundef nonnull align 8 dereferenceable(16) %this) unnamed_addr #1 comdat align 2 {
entry:
  %this.addr = alloca ptr, align 8
  store ptr %this, ptr %this.addr, align 8
  %this1 = load ptr, ptr %this.addr, align 8
  call void @_ZNSt10__weak_ptrIN5arrow8DataTypeELN9__gnu_cxx12_Lock_policyE2EEC2Ev(ptr noundef nonnull align 8 dereferenceable(16) %this1) #8
  ret void
}

; Function Attrs: mustprogress nounwind uwtable
define linkonce_odr void @_ZNSt6vectorISt10shared_ptrIN5arrow5FieldEESaIS3_EEC2Ev(ptr noundef nonnull align 8 dereferenceable(24) %this) unnamed_addr #1 comdat align 2 {
entry:
  %this.addr = alloca ptr, align 8
  store ptr %this, ptr %this.addr, align 8
  %this1 = load ptr, ptr %this.addr, align 8
  call void @_ZNSt12_Vector_baseISt10shared_ptrIN5arrow5FieldEESaIS3_EEC2Ev(ptr noundef nonnull align 8 dereferenceable(24) %this1) #8
  ret void
}

; Function Attrs: mustprogress nounwind uwtable
define linkonce_odr void @_ZN5arrow6detail15FingerprintableC2Ev(ptr noundef nonnull align 8 dereferenceable(24) %this) unnamed_addr #1 comdat align 2 {
entry:
  %this.addr = alloca ptr, align 8
  store ptr %this, ptr %this.addr, align 8
  %this1 = load ptr, ptr %this.addr, align 8
  store ptr getelementptr inbounds ({ [6 x ptr] }, ptr @_ZTVN5arrow6detail15FingerprintableE, i32 0, i32 0, i32 2), ptr %this1, align 8
  %fingerprint_ = getelementptr inbounds %"class.arrow::detail::Fingerprintable", ptr %this1, i32 0, i32 1
  call void @_ZNSt6atomicIPNSt7__cxx1112basic_stringIcSt11char_traitsIcESaIcEEEEC2ES6_(ptr noundef nonnull align 8 dereferenceable(8) %fingerprint_, ptr noundef null) #8
  %metadata_fingerprint_ = getelementptr inbounds %"class.arrow::detail::Fingerprintable", ptr %this1, i32 0, i32 2
  call void @_ZNSt6atomicIPNSt7__cxx1112basic_stringIcSt11char_traitsIcESaIcEEEEC2ES6_(ptr noundef nonnull align 8 dereferenceable(8) %metadata_fingerprint_, ptr noundef null) #8
  ret void
}

; Function Attrs: mustprogress nounwind uwtable
define linkonce_odr void @_ZNSt23enable_shared_from_thisIN5arrow8DataTypeEEC2Ev(ptr noundef nonnull align 8 dereferenceable(16) %this) unnamed_addr #1 comdat align 2 {
entry:
  %this.addr = alloca ptr, align 8
  store ptr %this, ptr %this.addr, align 8
  %this1 = load ptr, ptr %this.addr, align 8
  %_M_weak_this = getelementptr inbounds %"class.std::enable_shared_from_this.118", ptr %this1, i32 0, i32 0
  call void @_ZNSt8weak_ptrIN5arrow8DataTypeEEC2Ev(ptr noundef nonnull align 8 dereferenceable(16) %_M_weak_this) #8
  ret void
}

; Function Attrs: mustprogress nounwind uwtable
define linkonce_odr void @_ZN5arrow8DataTypeC2ENS_4Type4typeE(ptr noundef nonnull align 8 dereferenceable(72) %this, i32 noundef %id) unnamed_addr #1 comdat align 2 {
entry:
  %this.addr = alloca ptr, align 8
  %id.addr = alloca i32, align 4
  store ptr %this, ptr %this.addr, align 8
  store i32 %id, ptr %id.addr, align 4
  %this1 = load ptr, ptr %this.addr, align 8
  %0 = getelementptr inbounds i8, ptr %this1, i64 24
  call void @_ZNSt23enable_shared_from_thisIN5arrow8DataTypeEEC2Ev(ptr noundef nonnull align 8 dereferenceable(16) %0) #8
  %1 = getelementptr inbounds i8, ptr %this1, i64 0
  call void @llvm.memset.p0.i64(ptr align 8 %1, i8 0, i64 24, i1 false)
  call void @_ZN5arrow6detail15FingerprintableC2Ev(ptr noundef nonnull align 8 dereferenceable(24) %this1) #8
  store ptr getelementptr inbounds ({ [12 x ptr] }, ptr @_ZTVN5arrow8DataTypeE, i32 0, i32 0, i32 2), ptr %this1, align 8
  %id_ = getelementptr inbounds %"class.arrow::DataType", ptr %this1, i32 0, i32 2
  %2 = load i32, ptr %id.addr, align 4
  store i32 %2, ptr %id_, align 8
  %children_ = getelementptr inbounds %"class.arrow::DataType", ptr %this1, i32 0, i32 3
  call void @_ZNSt6vectorISt10shared_ptrIN5arrow5FieldEESaIS3_EEC2Ev(ptr noundef nonnull align 8 dereferenceable(24) %children_) #8
  ret void
}

; Function Attrs: mustprogress uwtable
define linkonce_odr void @_ZN5arrow14FixedWidthTypeCI2NS_8DataTypeEENS_4Type4typeE(ptr noundef nonnull align 8 dereferenceable(72) %this, i32 noundef %0) unnamed_addr #0 comdat align 2 {
entry:
  %this.addr = alloca ptr, align 8
  %.addr = alloca i32, align 4
  store ptr %this, ptr %this.addr, align 8
  store i32 %0, ptr %.addr, align 4
  %this1 = load ptr, ptr %this.addr, align 8
  %1 = load i32, ptr %.addr, align 4
  call void @_ZN5arrow8DataTypeC2ENS_4Type4typeE(ptr noundef nonnull align 8 dereferenceable(72) %this1, i32 noundef %1)
  store ptr getelementptr inbounds ({ [12 x ptr] }, ptr @_ZTVN5arrow14FixedWidthTypeE, i32 0, i32 0, i32 2), ptr %this1, align 8
  ret void
}

; Function Attrs: mustprogress uwtable
define linkonce_odr void @_ZN5arrow14PrimitiveCTypeCI2NS_8DataTypeEENS_4Type4typeE(ptr noundef nonnull align 8 dereferenceable(72) %this, i32 noundef %0) unnamed_addr #0 comdat align 2 {
entry:
  %this.addr = alloca ptr, align 8
  %.addr = alloca i32, align 4
  store ptr %this, ptr %this.addr, align 8
  store i32 %0, ptr %.addr, align 4
  %this1 = load ptr, ptr %this.addr, align 8
  %1 = load i32, ptr %.addr, align 4
  call void @_ZN5arrow14FixedWidthTypeCI2NS_8DataTypeEENS_4Type4typeE(ptr noundef nonnull align 8 dereferenceable(72) %this1, i32 noundef %1)
  store ptr getelementptr inbounds ({ [12 x ptr] }, ptr @_ZTVN5arrow14PrimitiveCTypeE, i32 0, i32 0, i32 2), ptr %this1, align 8
  ret void
}

; Function Attrs: mustprogress uwtable
define linkonce_odr void @_ZN5arrow10NumberTypeCI2NS_8DataTypeEENS_4Type4typeE(ptr noundef nonnull align 8 dereferenceable(72) %this, i32 noundef %0) unnamed_addr #0 comdat align 2 {
entry:
  %this.addr = alloca ptr, align 8
  %.addr = alloca i32, align 4
  store ptr %this, ptr %this.addr, align 8
  store i32 %0, ptr %.addr, align 4
  %this1 = load ptr, ptr %this.addr, align 8
  %1 = load i32, ptr %.addr, align 4
  call void @_ZN5arrow14PrimitiveCTypeCI2NS_8DataTypeEENS_4Type4typeE(ptr noundef nonnull align 8 dereferenceable(72) %this1, i32 noundef %1)
  store ptr getelementptr inbounds ({ [12 x ptr] }, ptr @_ZTVN5arrow10NumberTypeE, i32 0, i32 0, i32 2), ptr %this1, align 8
  ret void
}

; Function Attrs: mustprogress uwtable
define linkonce_odr void @_ZN5arrow11IntegerTypeCI2NS_8DataTypeEENS_4Type4typeE(ptr noundef nonnull align 8 dereferenceable(72) %this, i32 noundef %0) unnamed_addr #0 comdat align 2 {
entry:
  %this.addr = alloca ptr, align 8
  %.addr = alloca i32, align 4
  store ptr %this, ptr %this.addr, align 8
  store i32 %0, ptr %.addr, align 4
  %this1 = load ptr, ptr %this.addr, align 8
  %1 = load i32, ptr %.addr, align 4
  call void @_ZN5arrow10NumberTypeCI2NS_8DataTypeEENS_4Type4typeE(ptr noundef nonnull align 8 dereferenceable(72) %this1, i32 noundef %1)
  store ptr getelementptr inbounds ({ [13 x ptr] }, ptr @_ZTVN5arrow11IntegerTypeE, i32 0, i32 0, i32 2), ptr %this1, align 8
  ret void
}

; Function Attrs: mustprogress uwtable
define linkonce_odr void @_ZN5arrow6detail9CTypeImplINS_9Int32TypeENS_11IntegerTypeELNS_4Type4typeE7EiEC2Ev(ptr noundef nonnull align 8 dereferenceable(72) %this) unnamed_addr #0 comdat align 2 {
entry:
  %this.addr = alloca ptr, align 8
  store ptr %this, ptr %this.addr, align 8
  %this1 = load ptr, ptr %this.addr, align 8
  call void @_ZN5arrow11IntegerTypeCI2NS_8DataTypeEENS_4Type4typeE(ptr noundef nonnull align 8 dereferenceable(72) %this1, i32 noundef 7)
  store ptr getelementptr inbounds ({ [13 x ptr] }, ptr @_ZTVN5arrow6detail9CTypeImplINS_9Int32TypeENS_11IntegerTypeELNS_4Type4typeE7EiEE, i32 0, i32 0, i32 2), ptr %this1, align 8
  ret void
}

; Function Attrs: mustprogress uwtable
define linkonce_odr void @_ZN5arrow6detail15IntegerTypeImplINS_9Int32TypeELNS_4Type4typeE7EiEC2Ev(ptr noundef nonnull align 8 dereferenceable(72) %this) unnamed_addr #0 comdat align 2 {
entry:
  %this.addr = alloca ptr, align 8
  store ptr %this, ptr %this.addr, align 8
  %this1 = load ptr, ptr %this.addr, align 8
  call void @_ZN5arrow6detail9CTypeImplINS_9Int32TypeENS_11IntegerTypeELNS_4Type4typeE7EiEC2Ev(ptr noundef nonnull align 8 dereferenceable(72) %this1)
  store ptr getelementptr inbounds ({ [13 x ptr] }, ptr @_ZTVN5arrow6detail15IntegerTypeImplINS_9Int32TypeELNS_4Type4typeE7EiEE, i32 0, i32 0, i32 2), ptr %this1, align 8
  ret void
}

; Function Attrs: mustprogress uwtable
define linkonce_odr void @_ZN5arrow9Int32TypeC2Ev(ptr noundef nonnull align 8 dereferenceable(72) %this) unnamed_addr #0 comdat align 2 {
entry:
  %this.addr = alloca ptr, align 8
  store ptr %this, ptr %this.addr, align 8
  %this1 = load ptr, ptr %this.addr, align 8
  call void @_ZN5arrow6detail15IntegerTypeImplINS_9Int32TypeELNS_4Type4typeE7EiEC2Ev(ptr noundef nonnull align 8 dereferenceable(72) %this1)
  store ptr getelementptr inbounds ({ [13 x ptr] }, ptr @_ZTVN5arrow9Int32TypeE, i32 0, i32 0, i32 2), ptr %this1, align 8
  ret void
}

; Function Attrs: mustprogress uwtable
define linkonce_odr noundef zeroext i1 @_ZN5arrow8internal10ParseValueINS_9Int32TypeEEENSt9enable_ifIXsr22is_parameter_free_typeIT_EE5valueEbE4typeEPKcmPNS0_15StringConverterIS4_vE10value_typeE(ptr noundef %s, i64 noundef %length, ptr noundef %out) #0 comdat personality ptr @__gxx_personality_v0 {
entry:
  %s.addr = alloca ptr, align 8
  %length.addr = alloca i64, align 8
  %out.addr = alloca ptr, align 8
  %exn.slot = alloca ptr, align 8
  %ehselector.slot = alloca i32, align 4
  %ref.tmp = alloca %"struct.arrow::internal::StringConverter", align 1
  store ptr %s, ptr %s.addr, align 8
  store i64 %length, ptr %length.addr, align 8
  store ptr %out, ptr %out.addr, align 8
  %0 = load atomic i8, ptr @_ZGVZN5arrow8internal10ParseValueINS_9Int32TypeEEENSt9enable_ifIXsr22is_parameter_free_typeIT_EE5valueEbE4typeEPKcmPNS0_15StringConverterIS4_vE10value_typeEE4type acquire, align 8
  %guard.uninitialized = icmp eq i8 %0, 0
  br i1 %guard.uninitialized, label %init.check, label %init.end, !prof !8

init.check:                                       ; preds = %entry
  %1 = call i32 @__cxa_guard_acquire(ptr @_ZGVZN5arrow8internal10ParseValueINS_9Int32TypeEEENSt9enable_ifIXsr22is_parameter_free_typeIT_EE5valueEbE4typeEPKcmPNS0_15StringConverterIS4_vE10value_typeEE4type) #8
  %tobool = icmp ne i32 %1, 0
  br i1 %tobool, label %init, label %init.end

init:                                             ; preds = %init.check
  invoke void @_ZN5arrow9Int32TypeC2Ev(ptr noundef nonnull align 8 dereferenceable(72) @_ZZN5arrow8internal10ParseValueINS_9Int32TypeEEENSt9enable_ifIXsr22is_parameter_free_typeIT_EE5valueEbE4typeEPKcmPNS0_15StringConverterIS4_vE10value_typeEE4type)
          to label %invoke.cont unwind label %lpad

invoke.cont:                                      ; preds = %init
  %2 = call i32 @__cxa_atexit(ptr @_ZN5arrow9Int32TypeD2Ev, ptr @_ZZN5arrow8internal10ParseValueINS_9Int32TypeEEENSt9enable_ifIXsr22is_parameter_free_typeIT_EE5valueEbE4typeEPKcmPNS0_15StringConverterIS4_vE10value_typeEE4type, ptr @__dso_handle) #8
  call void @__cxa_guard_release(ptr @_ZGVZN5arrow8internal10ParseValueINS_9Int32TypeEEENSt9enable_ifIXsr22is_parameter_free_typeIT_EE5valueEbE4typeEPKcmPNS0_15StringConverterIS4_vE10value_typeEE4type) #8
  br label %init.end

init.end:                                         ; preds = %invoke.cont, %init.check, %entry
  %3 = load ptr, ptr %s.addr, align 8
  %4 = load i64, ptr %length.addr, align 8
  %5 = load ptr, ptr %out.addr, align 8
  %call = call noundef zeroext i1 @_ZN5arrow8internal31StringToSignedIntConverterMixinINS_9Int32TypeEE7ConvertERKS2_PKcmPi(ptr noundef nonnull align 1 dereferenceable(1) %ref.tmp, ptr noundef nonnull align 8 dereferenceable(72) @_ZZN5arrow8internal10ParseValueINS_9Int32TypeEEENSt9enable_ifIXsr22is_parameter_free_typeIT_EE5valueEbE4typeEPKcmPNS0_15StringConverterIS4_vE10value_typeEE4type, ptr noundef %3, i64 noundef %4, ptr noundef %5)
  ret i1 %call

lpad:                                             ; preds = %init
  %6 = landingpad { ptr, i32 }
          cleanup
  %7 = extractvalue { ptr, i32 } %6, 0
  store ptr %7, ptr %exn.slot, align 8
  %8 = extractvalue { ptr, i32 } %6, 1
  store i32 %8, ptr %ehselector.slot, align 4
  call void @__cxa_guard_abort(ptr @_ZGVZN5arrow8internal10ParseValueINS_9Int32TypeEEENSt9enable_ifIXsr22is_parameter_free_typeIT_EE5valueEbE4typeEPKcmPNS0_15StringConverterIS4_vE10value_typeEE4type) #8
  br label %eh.resume

eh.resume:                                        ; preds = %lpad
  %exn = load ptr, ptr %exn.slot, align 8
  %sel = load i32, ptr %ehselector.slot, align 4
  %lpad.val = insertvalue { ptr, i32 } poison, ptr %exn, 0
  %lpad.val1 = insertvalue { ptr, i32 } %lpad.val, i32 %sel, 1
  resume { ptr, i32 } %lpad.val1
}

; Function Attrs: mustprogress uwtable
define internal noundef zeroext i1 @_ZZN5arrow7compute11DeserializeESt10shared_ptrINS_6BufferEEEN15FromRecordBatch12ParseIntegerERKNSt7__cxx1112basic_stringIcSt11char_traitsIcESaIcEEEPi(ptr noundef nonnull align 8 dereferenceable(12) %this, ptr noundef nonnull align 8 dereferenceable(32) %s, ptr noundef %value) #0 align 2 {
entry:
  %this.addr = alloca ptr, align 8
  %s.addr = alloca ptr, align 8
  %value.addr = alloca ptr, align 8
  store ptr %this, ptr %this.addr, align 8
  store ptr %s, ptr %s.addr, align 8
  store ptr %value, ptr %value.addr, align 8
  %0 = load ptr, ptr %s.addr, align 8
  %call = call noundef ptr @_ZNKSt7__cxx1112basic_stringIcSt11char_traitsIcESaIcEE4dataEv(ptr noundef nonnull align 8 dereferenceable(32) %0) #8
  %1 = load ptr, ptr %s.addr, align 8
  %call2 = call noundef i64 @_ZNKSt7__cxx1112basic_stringIcSt11char_traitsIcESaIcEE6lengthEv(ptr noundef nonnull align 8 dereferenceable(32) %1) #8
  %2 = load ptr, ptr %value.addr, align 8
  %call3 = call noundef zeroext i1 @_ZN5arrow8internal10ParseValueINS_9Int32TypeEEENSt9enable_ifIXsr22is_parameter_free_typeIT_EE5valueEbE4typeEPKcmPNS0_15StringConverterIS4_vE10value_typeE(ptr noundef %call, i64 noundef %call2, ptr noundef %2)
  ret i1 %call3
}