; Function Attrs: mustprogress uwtable
define internal fastcc noundef zeroext i1 @_ZZN5arrow7compute11DeserializeESt10shared_ptrINS_6BufferEEEN15FromRecordBatch12ParseIntegerERKNSt7__cxx1112basic_stringIcSt11char_traitsIcESaIcEEEPi(ptr noundef nonnull align 8 dereferenceable(32) %s, ptr noundef %value) unnamed_addr #0 align 2 personality ptr @__gxx_personality_v0 {
entry:
  %ref.tmp.i = alloca %"struct.arrow::internal::StringConverter", align 1
  %call = tail call noundef ptr @_ZNKSt7__cxx1112basic_stringIcSt11char_traitsIcESaIcEE4dataEv(ptr noundef nonnull align 8 dereferenceable(32) %s) #25
  %call2 = tail call noundef i64 @_ZNKSt7__cxx1112basic_stringIcSt11char_traitsIcESaIcEE6lengthEv(ptr noundef nonnull align 8 dereferenceable(32) %s) #25
  call void @llvm.lifetime.start.p0(i64 1, ptr nonnull %ref.tmp.i)
  %0 = load atomic i8, ptr @_ZGVZN5arrow8internal10ParseValueINS_9Int32TypeEEENSt9enable_ifIXsr22is_parameter_free_typeIT_EE5valueEbE4typeEPKcmPNS0_15StringConverterIS4_vE10value_typeEE4type acquire, align 8
  %guard.uninitialized.i = icmp eq i8 %0, 0
  br i1 %guard.uninitialized.i, label %init.check.i, label %_ZN5arrow8internal10ParseValueINS_9Int32TypeEEENSt9enable_ifIXsr22is_parameter_free_typeIT_EE5valueEbE4typeEPKcmPNS0_15StringConverterIS4_vE10value_typeE.exit, !prof !21

init.check.i:                                     ; preds = %entry
  %1 = tail call i32 @__cxa_guard_acquire(ptr nonnull @_ZGVZN5arrow8internal10ParseValueINS_9Int32TypeEEENSt9enable_ifIXsr22is_parameter_free_typeIT_EE5valueEbE4typeEPKcmPNS0_15StringConverterIS4_vE10value_typeEE4type) #25
  %tobool.not.i = icmp eq i32 %1, 0
  br i1 %tobool.not.i, label %_ZN5arrow8internal10ParseValueINS_9Int32TypeEEENSt9enable_ifIXsr22is_parameter_free_typeIT_EE5valueEbE4typeEPKcmPNS0_15StringConverterIS4_vE10value_typeE.exit, label %invoke.cont.i

invoke.cont.i:                                    ; preds = %init.check.i
  tail call void @llvm.memset.p0.i64(ptr noundef nonnull align 8 dereferenceable(32) getelementptr inbounds (%"class.arrow::Int32Type", ptr @_ZZN5arrow8internal10ParseValueINS_9Int32TypeEEENSt9enable_ifIXsr22is_parameter_free_typeIT_EE5valueEbE4typeEPKcmPNS0_15StringConverterIS4_vE10value_typeEE4type, i64 0, i32 0, i32 0, i32 0, i32 0, i32 0, i32 0, i32 0, i32 0, i32 1, i32 0, i32 0), i8 0, i64 32, i1 false)
  store i32 7, ptr getelementptr inbounds (%"class.arrow::Int32Type", ptr @_ZZN5arrow8internal10ParseValueINS_9Int32TypeEEENSt9enable_ifIXsr22is_parameter_free_typeIT_EE5valueEbE4typeEPKcmPNS0_15StringConverterIS4_vE10value_typeEE4type, i64 0, i32 0, i32 0, i32 0, i32 0, i32 0, i32 0, i32 0, i32 2), align 8
  tail call void @llvm.memset.p0.i64(ptr noundef nonnull align 8 dereferenceable(24) getelementptr inbounds (%"class.arrow::Int32Type", ptr @_ZZN5arrow8internal10ParseValueINS_9Int32TypeEEENSt9enable_ifIXsr22is_parameter_free_typeIT_EE5valueEbE4typeEPKcmPNS0_15StringConverterIS4_vE10value_typeEE4type, i64 0, i32 0, i32 0, i32 0, i32 0, i32 0, i32 0, i32 0, i32 3, i32 0, i32 0, i32 0, i32 0), i8 0, i64 24, i1 false)
  store ptr getelementptr inbounds ({ [13 x ptr] }, ptr @_ZTVN5arrow9Int32TypeE, i64 0, i32 0, i64 2), ptr @_ZZN5arrow8internal10ParseValueINS_9Int32TypeEEENSt9enable_ifIXsr22is_parameter_free_typeIT_EE5valueEbE4typeEPKcmPNS0_15StringConverterIS4_vE10value_typeEE4type, align 8
  %2 = tail call i32 @__cxa_atexit(ptr nonnull @_ZN5arrow9Int32TypeD2Ev, ptr nonnull @_ZZN5arrow8internal10ParseValueINS_9Int32TypeEEENSt9enable_ifIXsr22is_parameter_free_typeIT_EE5valueEbE4typeEPKcmPNS0_15StringConverterIS4_vE10value_typeEE4type, ptr nonnull @__dso_handle) #25
  tail call void @__cxa_guard_release(ptr nonnull @_ZGVZN5arrow8internal10ParseValueINS_9Int32TypeEEENSt9enable_ifIXsr22is_parameter_free_typeIT_EE5valueEbE4typeEPKcmPNS0_15StringConverterIS4_vE10value_typeEE4type) #25
  br label %_ZN5arrow8internal10ParseValueINS_9Int32TypeEEENSt9enable_ifIXsr22is_parameter_free_typeIT_EE5valueEbE4typeEPKcmPNS0_15StringConverterIS4_vE10value_typeE.exit

_ZN5arrow8internal10ParseValueINS_9Int32TypeEEENSt9enable_ifIXsr22is_parameter_free_typeIT_EE5valueEbE4typeEPKcmPNS0_15StringConverterIS4_vE10value_typeE.exit: ; preds = %entry, %init.check.i, %invoke.cont.i
  %call.i = call noundef zeroext i1 @_ZN5arrow8internal31StringToSignedIntConverterMixinINS_9Int32TypeEE7ConvertERKS2_PKcmPi(ptr noundef nonnull align 1 dereferenceable(1) %ref.tmp.i, ptr noundef nonnull align 8 dereferenceable(72) @_ZZN5arrow8internal10ParseValueINS_9Int32TypeEEENSt9enable_ifIXsr22is_parameter_free_typeIT_EE5valueEbE4typeEPKcmPNS0_15StringConverterIS4_vE10value_typeEE4type, ptr noundef %call, i64 noundef %call2, ptr noundef %value)
  call void @llvm.lifetime.end.p0(i64 1, ptr nonnull %ref.tmp.i)
  ret i1 %call.i
}